; ModuleID = '29/1956.c'
source_filename = "29/1956.c"
target datalayout = "e-m:e-p270:32:32-p271:32:32-p272:64:64-i64:64-f80:128-n8:16:32:64-S128"
target triple = "x86_64-pc-linux-gnu"

@feibo = dso_local global [200 x i32] zeroinitializer, align 16
@fen = dso_local global [100 x float] zeroinitializer, align 16
@.str = private unnamed_addr constant [3 x i8] c"%d\00", align 1
@.str.1 = private unnamed_addr constant [6 x i8] c"%.3f\0A\00", align 1

; Function Attrs: noinline nounwind uwtable
define dso_local i32 @feii(i32 %0) #0 {
  %2 = alloca i32, align 4
  %3 = alloca i32, align 4
  store i32 %0, i32* %3, align 4
  %4 = load i32, i32* %3, align 4
  %5 = sext i32 %4 to i64
  %6 = getelementptr inbounds [200 x i32], [200 x i32]* @feibo, i64 0, i64 %5
  %7 = load i32, i32* %6, align 4
  %8 = icmp ne i32 %7, 0
  br i1 %8, label %9, label %14

9:                                                ; preds = %1
  %10 = load i32, i32* %3, align 4
  %11 = sext i32 %10 to i64
  %12 = getelementptr inbounds [200 x i32], [200 x i32]* @feibo, i64 0, i64 %11
  %13 = load i32, i32* %12, align 4
  store i32 %13, i32* %2, align 4
  br label %39

14:                                               ; preds = %1
  %15 = load i32, i32* %3, align 4
  %16 = icmp eq i32 %15, 1
  br i1 %16, label %17, label %21

17:                                               ; preds = %14
  %18 = load i32, i32* %3, align 4
  %19 = sext i32 %18 to i64
  %20 = getelementptr inbounds [200 x i32], [200 x i32]* @feibo, i64 0, i64 %19
  store i32 1, i32* %20, align 4
  store i32 1, i32* %2, align 4
  br label %39

21:                                               ; preds = %14
  %22 = load i32, i32* %3, align 4
  %23 = icmp eq i32 %22, 2
  br i1 %23, label %24, label %28

24:                                               ; preds = %21
  %25 = load i32, i32* %3, align 4
  %26 = sext i32 %25 to i64
  %27 = getelementptr inbounds [200 x i32], [200 x i32]* @feibo, i64 0, i64 %26
  store i32 2, i32* %27, align 4
  store i32 2, i32* %2, align 4
  br label %39

28:                                               ; preds = %21
  %29 = load i32, i32* %3, align 4
  %30 = sub nsw i32 %29, 1
  %31 = call i32 @feii(i32 %30)
  %32 = load i32, i32* %3, align 4
  %33 = sub nsw i32 %32, 2
  %34 = call i32 @feii(i32 %33)
  %35 = add nsw i32 %31, %34
  %36 = load i32, i32* %3, align 4
  %37 = sext i32 %36 to i64
  %38 = getelementptr inbounds [200 x i32], [200 x i32]* @feibo, i64 0, i64 %37
  store i32 %35, i32* %38, align 4
  store i32 %35, i32* %2, align 4
  br label %39

39:                                               ; preds = %28, %24, %17, %9
  %40 = load i32, i32* %2, align 4
  ret i32 %40
}

; Function Attrs: noinline nounwind uwtable
define dso_local i32 @main() #0 {
  %1 = alloca i32, align 4
  %2 = alloca i32, align 4
  %3 = alloca i32, align 4
  %4 = alloca i32, align 4
  %5 = alloca i32, align 4
  %6 = alloca float, align 4
  store i32 0, i32* %1, align 4
  %7 = call i32 (i8*, ...) @__isoc99_scanf(i8* getelementptr inbounds ([3 x i8], [3 x i8]* @.str, i64 0, i64 0), i32* %3)
  br label %8

8:                                                ; preds = %62, %0
  %9 = load i32, i32* %3, align 4
  %10 = add nsw i32 %9, -1
  store i32 %10, i32* %3, align 4
  %11 = icmp ne i32 %9, 0
  br i1 %11, label %12, label %66

12:                                               ; preds = %8
  store float 0.000000e+00, float* %6, align 4
  %13 = call i32 (i8*, ...) @__isoc99_scanf(i8* getelementptr inbounds ([3 x i8], [3 x i8]* @.str, i64 0, i64 0), i32* %2)
  store i32 1, i32* %4, align 4
  br label %14

14:                                               ; preds = %22, %12
  %15 = load i32, i32* %4, align 4
  %16 = load i32, i32* %2, align 4
  %17 = add nsw i32 %16, 1
  %18 = icmp sle i32 %15, %17
  br i1 %18, label %19, label %25

19:                                               ; preds = %14
  %20 = load i32, i32* %4, align 4
  %21 = call i32 @feii(i32 %20)
  br label %22

22:                                               ; preds = %19
  %23 = load i32, i32* %4, align 4
  %24 = add nsw i32 %23, 1
  store i32 %24, i32* %4, align 4
  br label %14

25:                                               ; preds = %14
  store i32 1, i32* %4, align 4
  br label %26

26:                                               ; preds = %59, %25
  %27 = load i32, i32* %4, align 4
  %28 = load i32, i32* %2, align 4
  %29 = icmp sle i32 %27, %28
  br i1 %29, label %30, label %62

30:                                               ; preds = %26
  %31 = load i32, i32* %4, align 4
  %32 = sext i32 %31 to i64
  %33 = getelementptr inbounds [100 x float], [100 x float]* @fen, i64 0, i64 %32
  %34 = load float, float* %33, align 4
  %35 = fcmp oeq float %34, 0.000000e+00
  br i1 %35, label %36, label %52

36:                                               ; preds = %30
  %37 = load i32, i32* %4, align 4
  %38 = add nsw i32 %37, 1
  %39 = sext i32 %38 to i64
  %40 = getelementptr inbounds [200 x i32], [200 x i32]* @feibo, i64 0, i64 %39
  %41 = load i32, i32* %40, align 4
  %42 = sitofp i32 %41 to float
  %43 = load i32, i32* %4, align 4
  %44 = sext i32 %43 to i64
  %45 = getelementptr inbounds [200 x i32], [200 x i32]* @feibo, i64 0, i64 %44
  %46 = load i32, i32* %45, align 4
  %47 = sitofp i32 %46 to float
  %48 = fdiv float %42, %47
  %49 = load i32, i32* %4, align 4
  %50 = sext i32 %49 to i64
  %51 = getelementptr inbounds [100 x float], [100 x float]* @fen, i64 0, i64 %50
  store float %48, float* %51, align 4
  br label %52

52:                                               ; preds = %36, %30
  %53 = load i32, i32* %4, align 4
  %54 = sext i32 %53 to i64
  %55 = getelementptr inbounds [100 x float], [100 x float]* @fen, i64 0, i64 %54
  %56 = load float, float* %55, align 4
  %57 = load float, float* %6, align 4
  %58 = fadd float %57, %56
  store float %58, float* %6, align 4
  br label %59

59:                                               ; preds = %52
  %60 = load i32, i32* %4, align 4
  %61 = add nsw i32 %60, 1
  store i32 %61, i32* %4, align 4
  br label %26

62:                                               ; preds = %26
  %63 = load float, float* %6, align 4
  %64 = fpext float %63 to double
  %65 = call i32 (i8*, ...) @printf(i8* getelementptr inbounds ([6 x i8], [6 x i8]* @.str.1, i64 0, i64 0), double %64)
  br label %8

66:                                               ; preds = %8
  %67 = load i32, i32* %1, align 4
  ret i32 %67
}

declare dso_local i32 @__isoc99_scanf(i8*, ...) #1

declare dso_local i32 @printf(i8*, ...) #1


!llvm.module.flags = !{!0}
!llvm.ident = !{!1}

!0 = !{i32 1, !"wchar_size", i32 4}
!1 = !{!"clang version 10.0.0-4ubuntu1 "}
